target datalayout = "e-m:e-p270:32:32-p271:32:32-p272:64:64-i64:64-i128:128-f80:128-n8:16:32:64-S128"
target triple = "x86_64-unknown-linux-gnu"

%"class.arrow::compute::KeyColumnArray" = type { [3 x ptr], [3 x ptr], %"struct.arrow::compute::KeyColumnMetadata", i64, [2 x i32] }
%"struct.arrow::compute::KeyColumnMetadata" = type { i8, i8, i32 }
%"struct.arrow::compute::LightContext" = type { i64, ptr }

; Function Attrs: mustprogress nounwind uwtable
define linkonce_odr noundef i32 @_ZNK5arrow7compute14KeyColumnArray10bit_offsetEi(ptr noundef nonnull align 8 dereferenceable(72) %this, i32 noundef %i) #2 comdat align 2 {
entry:
  %this.addr = alloca ptr, align 8
  %i.addr = alloca i32, align 4
  store ptr %this, ptr %this.addr, align 8
  store i32 %i, ptr %i.addr, align 4
  %this1 = load ptr, ptr %this.addr, align 8
  br label %while.cond

while.cond:                                       ; preds = %land.end, %entry
  br i1 false, label %while.body, label %while.end

while.body:                                       ; preds = %while.cond
  %0 = load i32, ptr %i.addr, align 4
  %cmp = icmp sge i32 %0, 0
  br i1 %cmp, label %land.rhs, label %land.end

land.rhs:                                         ; preds = %while.body
  br label %land.end

land.end:                                         ; preds = %land.rhs, %while.body
  br label %while.cond, !llvm.loop !89

while.end:                                        ; preds = %while.cond
  br label %while.cond3

while.cond3:                                      ; preds = %while.body4, %while.end
  br i1 false, label %while.body4, label %while.end5

while.body4:                                      ; preds = %while.cond3
  br label %while.cond3, !llvm.loop !90

while.end5:                                       ; preds = %while.cond3
  %bit_offset_ = getelementptr inbounds %"class.arrow::compute::KeyColumnArray", ptr %this1, i32 0, i32 4
  %1 = load i32, ptr %i.addr, align 4
  %idxprom = sext i32 %1 to i64
  %arrayidx = getelementptr inbounds [2 x i32], ptr %bit_offset_, i64 0, i64 %idxprom
  %2 = load i32, ptr %arrayidx, align 4
  ret i32 %2
}

; Function Attrs: mustprogress nounwind uwtable
define linkonce_odr noundef ptr @_ZN5arrow7compute14KeyColumnArray12mutable_dataEi(ptr noundef nonnull align 8 dereferenceable(72) %this, i32 noundef %i) #2 comdat align 2 {
entry:
  %this.addr = alloca ptr, align 8
  %i.addr = alloca i32, align 4
  store ptr %this, ptr %this.addr, align 8
  store i32 %i, ptr %i.addr, align 4
  %this1 = load ptr, ptr %this.addr, align 8
  br label %while.cond

while.cond:                                       ; preds = %land.end, %entry
  br i1 false, label %while.body, label %while.end

while.body:                                       ; preds = %while.cond
  %0 = load i32, ptr %i.addr, align 4
  %cmp = icmp sge i32 %0, 0
  br i1 %cmp, label %land.rhs, label %land.end

land.rhs:                                         ; preds = %while.body
  br label %land.end

land.end:                                         ; preds = %land.rhs, %while.body
  br label %while.cond, !llvm.loop !85

while.end:                                        ; preds = %while.cond
  br label %while.cond3

while.cond3:                                      ; preds = %while.body4, %while.end
  br i1 false, label %while.body4, label %while.end5

while.body4:                                      ; preds = %while.cond3
  br label %while.cond3, !llvm.loop !86

while.end5:                                       ; preds = %while.cond3
  %mutable_buffers_ = getelementptr inbounds %"class.arrow::compute::KeyColumnArray", ptr %this1, i32 0, i32 1
  %1 = load i32, ptr %i.addr, align 4
  %idxprom = sext i32 %1 to i64
  %arrayidx = getelementptr inbounds [3 x ptr], ptr %mutable_buffers_, i64 0, i64 %idxprom
  %2 = load ptr, ptr %arrayidx, align 8
  ret ptr %2
}

; Function Attrs: mustprogress nounwind uwtable
define linkonce_odr noundef ptr @_ZNK5arrow7compute14KeyColumnArray4dataEi(ptr noundef nonnull align 8 dereferenceable(72) %this, i32 noundef %i) #2 comdat align 2 {
entry:
  %this.addr = alloca ptr, align 8
  %i.addr = alloca i32, align 4
  store ptr %this, ptr %this.addr, align 8
  store i32 %i, ptr %i.addr, align 4
  %this1 = load ptr, ptr %this.addr, align 8
  br label %while.cond

while.cond:                                       ; preds = %land.end, %entry
  br i1 false, label %while.body, label %while.end

while.body:                                       ; preds = %while.cond
  %0 = load i32, ptr %i.addr, align 4
  %cmp = icmp sge i32 %0, 0
  br i1 %cmp, label %land.rhs, label %land.end

land.rhs:                                         ; preds = %while.body
  br label %land.end

land.end:                                         ; preds = %land.rhs, %while.body
  br label %while.cond, !llvm.loop !284

while.end:                                        ; preds = %while.cond
  br label %while.cond3

while.cond3:                                      ; preds = %while.body4, %while.end
  br i1 false, label %while.body4, label %while.end5

while.body4:                                      ; preds = %while.cond3
  br label %while.cond3, !llvm.loop !285

while.end5:                                       ; preds = %while.cond3
  %buffers_ = getelementptr inbounds %"class.arrow::compute::KeyColumnArray", ptr %this1, i32 0, i32 0
  %1 = load i32, ptr %i.addr, align 4
  %idxprom = sext i32 %1 to i64
  %arrayidx = getelementptr inbounds [3 x ptr], ptr %buffers_, i64 0, i64 %idxprom
  %2 = load ptr, ptr %arrayidx, align 8
  ret ptr %2
}

; Function Attrs: mustprogress nounwind uwtable
define linkonce_odr noundef i64 @_ZNK5arrow7compute14KeyColumnArray6lengthEv(ptr noundef nonnull align 8 dereferenceable(72) %this) #2 comdat align 2 {
entry:
  %this.addr = alloca ptr, align 8
  store ptr %this, ptr %this.addr, align 8
  %this1 = load ptr, ptr %this.addr, align 8
  %length_ = getelementptr inbounds %"class.arrow::compute::KeyColumnArray", ptr %this1, i32 0, i32 3
  %0 = load i64, ptr %length_, align 8
  ret i64 %0
}

; Function Attrs: mustprogress uwtable
define internal void @_ZN5arrow7compute12_GLOBAL__N_116TransformBoolean10PostDecodeERKNS0_14KeyColumnArrayEPS3_PNS0_12LightContextE(ptr noundef nonnull align 8 dereferenceable(72) %input, ptr noundef %output, ptr noundef %ctx) #0 align 2 {
entry:
  %input.addr = alloca ptr, align 8
  %output.addr = alloca ptr, align 8
  %ctx.addr = alloca ptr, align 8
  %buffer_index = alloca i32, align 4
  store ptr %input, ptr %input.addr, align 8
  store ptr %output, ptr %output.addr, align 8
  store ptr %ctx, ptr %ctx.addr, align 8
  br label %while.cond

while.cond:                                       ; preds = %while.body, %entry
  br i1 false, label %while.body, label %while.end

while.body:                                       ; preds = %while.cond
  %0 = load ptr, ptr %output.addr, align 8
  %call = call noundef nonnull align 4 dereferenceable(8) ptr @_ZNK5arrow7compute14KeyColumnArray8metadataEv(ptr noundef nonnull align 8 dereferenceable(72) %0)
  %1 = load ptr, ptr %input.addr, align 8
  %call1 = call noundef nonnull align 4 dereferenceable(8) ptr @_ZNK5arrow7compute14KeyColumnArray8metadataEv(ptr noundef nonnull align 8 dereferenceable(72) %1)
  br label %while.cond, !llvm.loop !60

while.end:                                        ; preds = %while.cond
  br label %while.cond5

while.cond5:                                      ; preds = %while.body6, %while.end
  br i1 false, label %while.body6, label %while.end7

while.body6:                                      ; preds = %while.cond5
  br label %while.cond5, !llvm.loop !61

while.end7:                                       ; preds = %while.cond5
  br label %while.cond8

while.cond8:                                      ; preds = %land.end, %while.end7
  br i1 false, label %while.body9, label %while.end15

while.body9:                                      ; preds = %while.cond8
  %2 = load ptr, ptr %output.addr, align 8
  %call10 = call noundef nonnull align 4 dereferenceable(8) ptr @_ZNK5arrow7compute14KeyColumnArray8metadataEv(ptr noundef nonnull align 8 dereferenceable(72) %2)
  %fixed_length = getelementptr inbounds %"struct.arrow::compute::KeyColumnMetadata", ptr %call10, i32 0, i32 2
  %3 = load i32, ptr %fixed_length, align 4
  %cmp11 = icmp eq i32 %3, 0
  br i1 %cmp11, label %land.rhs, label %land.end

land.rhs:                                         ; preds = %while.body9
  %4 = load ptr, ptr %input.addr, align 8
  %call12 = call noundef nonnull align 4 dereferenceable(8) ptr @_ZNK5arrow7compute14KeyColumnArray8metadataEv(ptr noundef nonnull align 8 dereferenceable(72) %4)
  br label %land.end

land.end:                                         ; preds = %land.rhs, %while.body9
  br label %while.cond8, !llvm.loop !62

while.end15:                                      ; preds = %while.cond8
  br label %while.cond16

while.cond16:                                     ; preds = %while.body17, %while.end15
  br i1 false, label %while.body17, label %while.end19

while.body17:                                     ; preds = %while.cond16
  br label %while.cond16, !llvm.loop !63

while.end19:                                      ; preds = %while.cond16
  br label %while.cond20

while.cond20:                                     ; preds = %while.body21, %while.end19
  br i1 false, label %while.body21, label %while.end25

while.body21:                                     ; preds = %while.cond20
  %5 = load ptr, ptr %output.addr, align 8
  %call22 = call noundef i64 @_ZNK5arrow7compute14KeyColumnArray6lengthEv(ptr noundef nonnull align 8 dereferenceable(72) %5)
  %6 = load ptr, ptr %input.addr, align 8
  %call23 = call noundef i64 @_ZNK5arrow7compute14KeyColumnArray6lengthEv(ptr noundef nonnull align 8 dereferenceable(72) %6)
  br label %while.cond20, !llvm.loop !64

while.end25:                                      ; preds = %while.cond20
  br label %while.cond26

while.cond26:                                     ; preds = %while.body27, %while.end25
  br i1 false, label %while.body27, label %while.end29

while.body27:                                     ; preds = %while.cond26
  br label %while.cond26, !llvm.loop !65

while.end29:                                      ; preds = %while.cond26
  store i32 1, ptr %buffer_index, align 4
  br label %while.cond30

while.cond30:                                     ; preds = %while.body31, %while.end29
  br i1 false, label %while.body31, label %while.end34

while.body31:                                     ; preds = %while.cond30
  %7 = load ptr, ptr %input.addr, align 8
  %call32 = call noundef ptr @_ZNK5arrow7compute14KeyColumnArray4dataEi(ptr noundef nonnull align 8 dereferenceable(72) %7, i32 noundef 1)
  br label %while.cond30, !llvm.loop !66

while.end34:                                      ; preds = %while.cond30
  br label %while.cond35

while.cond35:                                     ; preds = %while.body36, %while.end34
  br i1 false, label %while.body36, label %while.end38

while.body36:                                     ; preds = %while.cond35
  br label %while.cond35, !llvm.loop !67

while.end38:                                      ; preds = %while.cond35
  br label %while.cond39

while.cond39:                                     ; preds = %while.body40, %while.end38
  br i1 false, label %while.body40, label %while.end43

while.body40:                                     ; preds = %while.cond39
  %8 = load ptr, ptr %output.addr, align 8
  %call41 = call noundef ptr @_ZN5arrow7compute14KeyColumnArray12mutable_dataEi(ptr noundef nonnull align 8 dereferenceable(72) %8, i32 noundef 1)
  br label %while.cond39, !llvm.loop !68

while.end43:                                      ; preds = %while.cond39
  br label %while.cond44

while.cond44:                                     ; preds = %while.body45, %while.end43
  br i1 false, label %while.body45, label %while.end47

while.body45:                                     ; preds = %while.cond44
  br label %while.cond44, !llvm.loop !69

while.end47:                                      ; preds = %while.cond44
  %9 = load ptr, ptr %ctx.addr, align 8
  %hardware_flags = getelementptr inbounds %"struct.arrow::compute::LightContext", ptr %9, i32 0, i32 0
  %10 = load i64, ptr %hardware_flags, align 8
  %11 = load ptr, ptr %input.addr, align 8
  %call48 = call noundef i64 @_ZNK5arrow7compute14KeyColumnArray6lengthEv(ptr noundef nonnull align 8 dereferenceable(72) %11)
  %conv49 = trunc i64 %call48 to i32
  %12 = load ptr, ptr %input.addr, align 8
  %call50 = call noundef ptr @_ZNK5arrow7compute14KeyColumnArray4dataEi(ptr noundef nonnull align 8 dereferenceable(72) %12, i32 noundef 1)
  %13 = load ptr, ptr %output.addr, align 8
  %call51 = call noundef ptr @_ZN5arrow7compute14KeyColumnArray12mutable_dataEi(ptr noundef nonnull align 8 dereferenceable(72) %13, i32 noundef 1)
  %14 = load ptr, ptr %output.addr, align 8
  %call52 = call noundef i32 @_ZNK5arrow7compute14KeyColumnArray10bit_offsetEi(ptr noundef nonnull align 8 dereferenceable(72) %14, i32 noundef 1)
  call void @_ZN5arrow4util8bit_util13bytes_to_bitsEliPKhPhi(i64 noundef %10, i32 noundef %conv49, ptr noundef %call50, ptr noundef %call51, i32 noundef %call52)
  ret void
}

; Function Attrs: mustprogress nounwind uwtable
define noundef zeroext i1 @_ZN5arrow7compute14EncoderInteger9IsBooleanERKNS0_17KeyColumnMetadataE(ptr noundef nonnull align 4 dereferenceable(8) %metadata) #2 align 2 {
entry:
  %metadata.addr = alloca ptr, align 8
  store ptr %metadata, ptr %metadata.addr, align 8
  %0 = load ptr, ptr %metadata.addr, align 8
  %is_fixed_length = getelementptr inbounds %"struct.arrow::compute::KeyColumnMetadata", ptr %0, i32 0, i32 0
  %1 = load i8, ptr %is_fixed_length, align 4
  %tobool = trunc i8 %1 to i1
  br i1 %tobool, label %land.lhs.true, label %land.end

land.lhs.true:                                    ; preds = %entry
  %2 = load ptr, ptr %metadata.addr, align 8
  %fixed_length = getelementptr inbounds %"struct.arrow::compute::KeyColumnMetadata", ptr %2, i32 0, i32 2
  %3 = load i32, ptr %fixed_length, align 4
  %cmp = icmp eq i32 %3, 0
  br i1 %cmp, label %land.rhs, label %land.end

land.rhs:                                         ; preds = %land.lhs.true
  %4 = load ptr, ptr %metadata.addr, align 8
  %is_null_type = getelementptr inbounds %"struct.arrow::compute::KeyColumnMetadata", ptr %4, i32 0, i32 1
  %5 = load i8, ptr %is_null_type, align 1
  %tobool1 = trunc i8 %5 to i1
  %lnot = xor i1 %tobool1, true
  br label %land.end

land.end:                                         ; preds = %land.rhs, %land.lhs.true, %entry
  %6 = phi i1 [ false, %land.lhs.true ], [ false, %entry ], [ %lnot, %land.rhs ]
  ret i1 %6
}

; Function Attrs: mustprogress nounwind uwtable
define linkonce_odr noundef nonnull align 4 dereferenceable(8) ptr @_ZNK5arrow7compute14KeyColumnArray8metadataEv(ptr noundef nonnull align 8 dereferenceable(72) %this) #2 comdat align 2 {
entry:
  %this.addr = alloca ptr, align 8
  store ptr %this, ptr %this.addr, align 8
  %this1 = load ptr, ptr %this.addr, align 8
  %metadata_ = getelementptr inbounds %"class.arrow::compute::KeyColumnArray", ptr %this1, i32 0, i32 2
  ret ptr %metadata_
}

; Function Attrs: mustprogress uwtable
define void @_ZN5arrow7compute14EncoderInteger10PostDecodeERKNS0_14KeyColumnArrayEPS2_PNS0_12LightContextE(ptr noundef nonnull align 8 dereferenceable(72) %input, ptr noundef %output, ptr noundef %ctx) #0 align 2 {
entry:
  %input.addr = alloca ptr, align 8
  %output.addr = alloca ptr, align 8
  %ctx.addr = alloca ptr, align 8
  store ptr %input, ptr %input.addr, align 8
  store ptr %output, ptr %output.addr, align 8
  store ptr %ctx, ptr %ctx.addr, align 8
  %0 = load ptr, ptr %output.addr, align 8
  %call = call noundef nonnull align 4 dereferenceable(8) ptr @_ZNK5arrow7compute14KeyColumnArray8metadataEv(ptr noundef nonnull align 8 dereferenceable(72) %0)
  %call1 = call noundef zeroext i1 @_ZN5arrow7compute14EncoderInteger9IsBooleanERKNS0_17KeyColumnMetadataE(ptr noundef nonnull align 4 dereferenceable(8) %call)
  br i1 %call1, label %if.then, label %if.end

if.then:                                          ; preds = %entry
  %1 = load ptr, ptr %input.addr, align 8
  %2 = load ptr, ptr %output.addr, align 8
  %3 = load ptr, ptr %ctx.addr, align 8
  call void @_ZN5arrow7compute12_GLOBAL__N_116TransformBoolean10PostDecodeERKNS0_14KeyColumnArrayEPS3_PNS0_12LightContextE(ptr noundef nonnull align 8 dereferenceable(72) %1, ptr noundef %2, ptr noundef %3)
  br label %if.end

if.end:                                           ; preds = %if.then, %entry
  ret void
}