; Function Attrs: mustprogress uwtable
define void @_ZN5arrow7compute14EncoderInteger10PostDecodeERKNS0_14KeyColumnArrayEPS2_PNS0_12LightContextE(ptr noundef nonnull readonly align 8 captures(none) dereferenceable(72) %input, ptr noundef readonly captures(none) %output, ptr noundef readonly captures(none) %ctx) local_unnamed_addr #0 align 2 {
entry:
  %metadata_.i = getelementptr inbounds nuw i8, ptr %output, i64 48
  %0 = load i8, ptr %metadata_.i, align 4
  %tobool.i = trunc i8 %0 to i1
  %fixed_length.i = getelementptr inbounds nuw i8, ptr %output, i64 52
  %1 = load i32, ptr %fixed_length.i, align 4
  %cmp.i = icmp ne i32 %1, 0
  %not.tobool.i = xor i1 %tobool.i, true
  %or.cond.i = select i1 %not.tobool.i, i1 true, i1 %cmp.i
  %is_null_type.i = getelementptr inbounds nuw i8, ptr %output, i64 49
  %2 = load i8, ptr %is_null_type.i, align 1
  %tobool1.i = trunc i8 %2 to i1
  %3 = select i1 %or.cond.i, i1 true, i1 %tobool1.i
  br i1 %3, label %if.end, label %if.then

if.then:                                          ; preds = %entry
  %4 = getelementptr inbounds nuw i8, ptr %input, i64 8
  %input.val = load ptr, ptr %4, align 8
  %5 = getelementptr inbounds nuw i8, ptr %input, i64 56
  %input.val2 = load i64, ptr %5, align 8
  %6 = getelementptr i8, ptr %output, i64 32
  %output.val = load ptr, ptr %6, align 8
  %7 = getelementptr i8, ptr %output, i64 68
  %output.val3 = load i32, ptr %7, align 4
  %ctx.val = load i64, ptr %ctx, align 8
  %conv49.i = trunc i64 %input.val2 to i32
  tail call void @_ZN5arrow4util8bit_util13bytes_to_bitsEliPKhPhi(i64 noundef %ctx.val, i32 noundef %conv49.i, ptr noundef %input.val, ptr noundef %output.val, i32 noundef %output.val3)
  br label %if.end

if.end:                                           ; preds = %if.then, %entry
  ret void
}